; ModuleID = 'source-C-CXX/22/745.c'
source_filename = "source-C-CXX/22/745.c"
target datalayout = "e-m:e-p270:32:32-p271:32:32-p272:64:64-i64:64-f80:128-n8:16:32:64-S128"
target triple = "x86_64-pc-linux-gnu"

; Function Attrs: nounwind sspstrong uwtable
define dso_local i32 @main() local_unnamed_addr #0 {
  %1 = alloca [100 x i8], align 16
  %2 = getelementptr inbounds [100 x i8], [100 x i8]* %1, i64 0, i64 0
  call void @llvm.lifetime.start.p0i8(i64 100, i8* nonnull %2) #5
  %3 = call i32 (i8*, ...) bitcast (i32 (...)* @gets to i32 (i8*, ...)*)(i8* nonnull %2) #5
  %4 = call i64 @strlen(i8* noundef nonnull %2) #6
  %5 = trunc i64 %4 to i32
  %6 = icmp sgt i32 %5, 0
  br i1 %6, label %7, label %56

7:                                                ; preds = %0
  %8 = shl i64 %4, 32
  %9 = ashr exact i64 %8, 32
  %10 = and i64 %4, 4294967295
  br label %15

11:                                               ; preds = %43
  %12 = icmp sgt i32 %44, 0
  br i1 %12, label %13, label %56

13:                                               ; preds = %11
  %14 = zext i32 %44 to i64
  br label %48

15:                                               ; preds = %7, %43
  %16 = phi i64 [ %10, %7 ], [ %47, %43 ]
  %17 = phi i64 [ %9, %7 ], [ %46, %43 ]
  %18 = phi i32 [ 0, %7 ], [ %44, %43 ]
  %19 = phi i32 [ %5, %7 ], [ %20, %43 ]
  %20 = add nsw i32 %19, -1
  %21 = zext i32 %20 to i64
  %22 = getelementptr inbounds [100 x i8], [100 x i8]* %1, i64 0, i64 %21
  %23 = load i8, i8* %22, align 1, !tbaa !5
  %24 = icmp eq i8 %23, 32
  br i1 %24, label %25, label %31

25:                                               ; preds = %15
  %26 = icmp sgt i32 %18, 0
  br i1 %26, label %27, label %41

27:                                               ; preds = %25
  %28 = trunc i64 %16 to i32
  %29 = add nsw i32 %18, %28
  %30 = sext i32 %29 to i64
  br label %33

31:                                               ; preds = %15
  %32 = add nsw i32 %18, 1
  br label %43

33:                                               ; preds = %27, %33
  %34 = phi i64 [ %17, %27 ], [ %39, %33 ]
  %35 = getelementptr inbounds [100 x i8], [100 x i8]* %1, i64 0, i64 %34
  %36 = load i8, i8* %35, align 1, !tbaa !5
  %37 = sext i8 %36 to i32
  %38 = call i32 @putchar(i32 %37)
  %39 = add nsw i64 %34, 1
  %40 = icmp slt i64 %39, %30
  br i1 %40, label %33, label %41, !llvm.loop !8

41:                                               ; preds = %33, %25
  %42 = call i32 @putchar(i32 32)
  br label %43

43:                                               ; preds = %31, %41
  %44 = phi i32 [ %32, %31 ], [ 0, %41 ]
  %45 = icmp sgt i64 %16, 1
  %46 = add nsw i64 %17, -1
  %47 = add nsw i64 %16, -1
  br i1 %45, label %15, label %11, !llvm.loop !10

48:                                               ; preds = %13, %48
  %49 = phi i64 [ 0, %13 ], [ %54, %48 ]
  %50 = getelementptr inbounds [100 x i8], [100 x i8]* %1, i64 0, i64 %49
  %51 = load i8, i8* %50, align 1, !tbaa !5
  %52 = sext i8 %51 to i32
  %53 = call i32 @putchar(i32 %52)
  %54 = add nuw nsw i64 %49, 1
  %55 = icmp ult i64 %54, %14
  br i1 %55, label %48, label %56, !llvm.loop !11

56:                                               ; preds = %48, %0, %11
  call void @llvm.lifetime.end.p0i8(i64 100, i8* nonnull %2) #5
  ret i32 0
}

; Function Attrs: argmemonly mustprogress nofree nosync nounwind willreturn
declare void @llvm.lifetime.start.p0i8(i64 immarg, i8* nocapture) #1

declare i32 @gets(...) local_unnamed_addr #2

; Function Attrs: argmemonly mustprogress nofree nounwind readonly willreturn
declare i64 @strlen(i8* nocapture) local_unnamed_addr #3

; Function Attrs: argmemonly mustprogress nofree nosync nounwind willreturn
declare void @llvm.lifetime.end.p0i8(i64 immarg, i8* nocapture) #1

; Function Attrs: nofree nounwind
declare noundef i32 @putchar(i32 noundef) local_unnamed_addr #4


!llvm.module.flags = !{!0, !1, !2, !3}
!llvm.ident = !{!4}

!0 = !{i32 1, !"wchar_size", i32 4}
!1 = !{i32 7, !"PIC Level", i32 2}
!2 = !{i32 7, !"PIE Level", i32 2}
!3 = !{i32 7, !"uwtable", i32 1}
!4 = !{!"clang version 13.0.0"}
!5 = !{!6, !6, i64 0}
!6 = !{!"omnipotent char", !7, i64 0}
!7 = !{!"Simple C/C++ TBAA"}
!8 = distinct !{!8, !9}
!9 = !{!"llvm.loop.mustprogress"}
!10 = distinct !{!10, !9}
!11 = distinct !{!11, !9}
